; Function Attrs: mustprogress nounwind uwtable
define internal fastcc void @_ZN12_GLOBAL__N_111StmtPrinter20PrintRawCXXCatchStmtEPN5clang12CXXCatchStmtE(ptr noundef nonnull align 8 dereferenceable(80) %0, ptr noundef readonly captures(none) %1) unnamed_addr #0 align 2 {
  %3 = load ptr, ptr %0, align 8
  %4 = getelementptr inbounds nuw i8, ptr %3, i64 24
  %5 = load ptr, ptr %4, align 8
  %6 = getelementptr inbounds nuw i8, ptr %3, i64 32
  %7 = load ptr, ptr %6, align 8
  %8 = ptrtoint ptr %5 to i64
  %9 = ptrtoint ptr %7 to i64
  %10 = sub i64 %8, %9
  %11 = icmp ult i64 %10, 7
  br i1 %11, label %12, label %14

12:                                               ; preds = %2
  %13 = tail call noundef nonnull align 8 dereferenceable(48) ptr @_ZN4llvm11raw_ostream5writeEPKcm(ptr noundef nonnull align 8 dereferenceable(48) %3, ptr noundef nonnull @.str.360, i64 noundef 7) #19
  br label %_ZN4llvm11raw_ostreamlsEPKc.exit

14:                                               ; preds = %2
  tail call void @llvm.memcpy.p0.p0.i64(ptr noundef nonnull align 1 dereferenceable(7) %7, ptr noundef nonnull align 1 dereferenceable(7) @.str.360, i64 7, i1 false)
  %15 = load ptr, ptr %6, align 8
  %16 = getelementptr inbounds nuw i8, ptr %15, i64 7
  store ptr %16, ptr %6, align 8
  br label %_ZN4llvm11raw_ostreamlsEPKc.exit

_ZN4llvm11raw_ostreamlsEPKc.exit:                 ; preds = %12, %14
  %17 = getelementptr inbounds nuw i8, ptr %1, i64 16
  %18 = load ptr, ptr %17, align 8
  %.not = icmp eq ptr %18, null
  %19 = load ptr, ptr %0, align 8
  br i1 %.not, label %24, label %20

20:                                               ; preds = %_ZN4llvm11raw_ostreamlsEPKc.exit
  %21 = getelementptr inbounds nuw i8, ptr %0, i64 24
  %22 = getelementptr inbounds nuw i8, ptr %0, i64 8
  %23 = load i32, ptr %22, align 8
  tail call void @_ZNK5clang4Decl5printERN4llvm11raw_ostreamERKNS_14PrintingPolicyEjb(ptr noundef nonnull align 8 dereferenceable(33) %18, ptr noundef nonnull align 8 dereferenceable(48) %19, ptr noundef nonnull align 8 dereferenceable(16) %21, i32 noundef %23, i1 noundef zeroext false) #19
  br label %_ZN4llvm11raw_ostreamlsEPKc.exit7

24:                                               ; preds = %_ZN4llvm11raw_ostreamlsEPKc.exit
  %25 = getelementptr inbounds nuw i8, ptr %19, i64 24
  %26 = load ptr, ptr %25, align 8
  %27 = getelementptr inbounds nuw i8, ptr %19, i64 32
  %28 = load ptr, ptr %27, align 8
  %29 = ptrtoint ptr %26 to i64
  %30 = ptrtoint ptr %28 to i64
  %31 = sub i64 %29, %30
  %32 = icmp ult i64 %31, 3
  br i1 %32, label %33, label %35

33:                                               ; preds = %24
  %34 = tail call noundef nonnull align 8 dereferenceable(48) ptr @_ZN4llvm11raw_ostream5writeEPKcm(ptr noundef nonnull align 8 dereferenceable(48) %19, ptr noundef nonnull @.str.49, i64 noundef 3) #19
  br label %_ZN4llvm11raw_ostreamlsEPKc.exit7

35:                                               ; preds = %24
  tail call void @llvm.memcpy.p0.p0.i64(ptr noundef nonnull align 1 dereferenceable(3) %28, ptr noundef nonnull align 1 dereferenceable(3) @.str.49, i64 3, i1 false)
  %36 = load ptr, ptr %27, align 8
  %37 = getelementptr inbounds nuw i8, ptr %36, i64 3
  store ptr %37, ptr %27, align 8
  br label %_ZN4llvm11raw_ostreamlsEPKc.exit7

_ZN4llvm11raw_ostreamlsEPKc.exit7:                ; preds = %35, %33, %20
  %38 = load ptr, ptr %0, align 8
  %39 = getelementptr inbounds nuw i8, ptr %38, i64 24
  %40 = load ptr, ptr %39, align 8
  %41 = getelementptr inbounds nuw i8, ptr %38, i64 32
  %42 = load ptr, ptr %41, align 8
  %43 = ptrtoint ptr %40 to i64
  %44 = ptrtoint ptr %42 to i64
  %45 = sub i64 %43, %44
  %46 = icmp ult i64 %45, 2
  br i1 %46, label %47, label %49

47:                                               ; preds = %_ZN4llvm11raw_ostreamlsEPKc.exit7
  %48 = tail call noundef nonnull align 8 dereferenceable(48) ptr @_ZN4llvm11raw_ostream5writeEPKcm(ptr noundef nonnull align 8 dereferenceable(48) %38, ptr noundef nonnull @.str.37, i64 noundef 2) #19
  br label %_ZN4llvm11raw_ostreamlsEPKc.exit10

49:                                               ; preds = %_ZN4llvm11raw_ostreamlsEPKc.exit7
  store i16 8233, ptr %42, align 1
  %50 = load ptr, ptr %41, align 8
  %51 = getelementptr inbounds nuw i8, ptr %50, i64 2
  store ptr %51, ptr %41, align 8
  br label %_ZN4llvm11raw_ostreamlsEPKc.exit10

_ZN4llvm11raw_ostreamlsEPKc.exit10:               ; preds = %47, %49
  %52 = getelementptr inbounds nuw i8, ptr %1, i64 24
  %53 = load ptr, ptr %52, align 8
  tail call fastcc void @_ZN12_GLOBAL__N_111StmtPrinter20PrintRawCompoundStmtEPN5clang12CompoundStmtE(ptr noundef nonnull align 8 dereferenceable(80) %0, ptr noundef %53)
  ret void
}